target datalayout = "e-m:e-p270:32:32-p271:32:32-p272:64:64-i64:64-i128:128-f80:128-n8:16:32:64-S128"
target triple = "x86_64-pc-linux-gnu"

%struct.client = type { i64, i64, ptr, i8, i8, i8, i8, i32, ptr, ptr, ptr, ptr, ptr, i64, i64, i32, ptr, i32, i32, ptr, i64, ptr, ptr, ptr, ptr, ptr, i32, i32, i64, ptr, i64, ptr, i64, i64, i64, i32, ptr, i64, i64, i32, i32, i32, i32, i64, i64, ptr, i64, i64, i64, i64, i64, i64, i64, i64, [41 x i8], i32, ptr, i32, i32, i64, %struct.multiState, %struct.blockingState, i64, ptr, ptr, ptr, ptr, ptr, ptr, ptr, ptr, ptr, ptr, ptr, ptr, ptr, ptr, i64, ptr, i64, i32, ptr, ptr, ptr, i64, %struct.listNode, i64, i64, i32, i64, ptr }
%struct.multiState = type { ptr, i32, i32, i32, i64, i32 }
%struct.blockingState = type { i32, i64, i32, ptr, i32, i32, i64, ptr, ptr, i64 }
%struct.listNode = type { ptr, ptr, ptr }
%struct.list = type { ptr, ptr, ptr, ptr, ptr, i64 }
%struct.redisDb = type { ptr, ptr, ptr, ptr, ptr, ptr, ptr, i32, i64, i64, ptr }

@.str.1 = private unnamed_addr constant [10 x i8] c"blocked.c\00", align 1
@.str.9 = private unnamed_addr constant [10 x i8] c"l != NULL\00", align 1
@.str.10 = private unnamed_addr constant [31 x i8] c"unblock_on_nokey_entry != NULL\00", align 1

; Function Attrs: nounwind uwtable
define internal void @releaseBlockedEntry(ptr noundef %0, ptr noundef %1, i32 noundef %2) #0 {
  %4 = alloca ptr, align 8
  %5 = alloca ptr, align 8
  %6 = alloca i32, align 4
  %7 = alloca ptr, align 8
  %8 = alloca ptr, align 8
  %9 = alloca ptr, align 8
  %10 = alloca ptr, align 8
  store ptr %0, ptr %4, align 8, !tbaa !5
  store ptr %1, ptr %5, align 8, !tbaa !85
  store i32 %2, ptr %6, align 4, !tbaa !36
  call void @llvm.lifetime.start.p0(i64 8, ptr %7) #8
  call void @llvm.lifetime.start.p0(i64 8, ptr %8) #8
  call void @llvm.lifetime.start.p0(i64 8, ptr %9) #8
  call void @llvm.lifetime.start.p0(i64 8, ptr %10) #8
  %11 = load ptr, ptr %5, align 8, !tbaa !85
  %12 = call ptr @dictGetKey(ptr noundef %11)
  store ptr %12, ptr %9, align 8, !tbaa !117
  %13 = load ptr, ptr %5, align 8, !tbaa !85
  %14 = call ptr @dictGetVal(ptr noundef %13)
  store ptr %14, ptr %8, align 8, !tbaa !77
  %15 = load ptr, ptr %4, align 8, !tbaa !5
  %16 = getelementptr inbounds nuw %struct.client, ptr %15, i32 0, i32 8
  %17 = load ptr, ptr %16, align 8, !tbaa !110
  %18 = getelementptr inbounds nuw %struct.redisDb, ptr %17, i32 0, i32 3
  %19 = load ptr, ptr %18, align 8, !tbaa !106
  %20 = load ptr, ptr %9, align 8, !tbaa !117
  %21 = call ptr @dictFetchValue(ptr noundef %19, ptr noundef %20)
  store ptr %21, ptr %7, align 8, !tbaa !96
  %22 = load ptr, ptr %7, align 8, !tbaa !96
  %23 = icmp ne ptr %22, null
  %24 = xor i1 %23, true
  %25 = xor i1 %24, true
  %26 = zext i1 %25 to i32
  %27 = sext i32 %26 to i64
  %28 = call i64 @llvm.expect.i64(i64 %27, i64 1)
  %29 = icmp ne i64 %28, 0
  br i1 %29, label %30, label %31

30:                                               ; preds = %3
  br label %35

31:                                               ; preds = %3
  %32 = load ptr, ptr %4, align 8, !tbaa !5
  %33 = load ptr, ptr %9, align 8, !tbaa !117
  call void @_serverAssertWithInfo(ptr noundef %32, ptr noundef %33, ptr noundef @.str.9, ptr noundef @.str.1, i32 noundef 517)
  call void @abort() #7
  unreachable

34:                                               ; No predecessors!
  br label %35

35:                                               ; preds = %34, %30
  %36 = load ptr, ptr %7, align 8, !tbaa !96
  %37 = load ptr, ptr %8, align 8, !tbaa !77
  call void @listUnlinkNode(ptr noundef %36, ptr noundef %37)
  %38 = load ptr, ptr %7, align 8, !tbaa !96
  %39 = getelementptr inbounds nuw %struct.list, ptr %38, i32 0, i32 5
  %40 = load i64, ptr %39, align 8, !tbaa !74
  %41 = icmp eq i64 %40, 0
  br i1 %41, label %42, label %57

42:                                               ; preds = %35
  %43 = load ptr, ptr %4, align 8, !tbaa !5
  %44 = getelementptr inbounds nuw %struct.client, ptr %43, i32 0, i32 8
  %45 = load ptr, ptr %44, align 8, !tbaa !110
  %46 = getelementptr inbounds nuw %struct.redisDb, ptr %45, i32 0, i32 3
  %47 = load ptr, ptr %46, align 8, !tbaa !106
  %48 = load ptr, ptr %9, align 8, !tbaa !117
  %49 = call i32 @dictDelete(ptr noundef %47, ptr noundef %48)
  %50 = load ptr, ptr %4, align 8, !tbaa !5
  %51 = getelementptr inbounds nuw %struct.client, ptr %50, i32 0, i32 8
  %52 = load ptr, ptr %51, align 8, !tbaa !110
  %53 = getelementptr inbounds nuw %struct.redisDb, ptr %52, i32 0, i32 4
  %54 = load ptr, ptr %53, align 8, !tbaa !112
  %55 = load ptr, ptr %9, align 8, !tbaa !117
  %56 = call i32 @dictDelete(ptr noundef %54, ptr noundef %55)
  br label %98

57:                                               ; preds = %35
  %58 = load ptr, ptr %4, align 8, !tbaa !5
  %59 = getelementptr inbounds nuw %struct.client, ptr %58, i32 0, i32 61
  %60 = getelementptr inbounds nuw %struct.blockingState, ptr %59, i32 0, i32 2
  %61 = load i32, ptr %60, align 8, !tbaa !34
  %62 = icmp ne i32 %61, 0
  br i1 %62, label %63, label %97

63:                                               ; preds = %57
  %64 = load ptr, ptr %4, align 8, !tbaa !5
  %65 = getelementptr inbounds nuw %struct.client, ptr %64, i32 0, i32 8
  %66 = load ptr, ptr %65, align 8, !tbaa !110
  %67 = getelementptr inbounds nuw %struct.redisDb, ptr %66, i32 0, i32 4
  %68 = load ptr, ptr %67, align 8, !tbaa !112
  %69 = load ptr, ptr %9, align 8, !tbaa !117
  %70 = call ptr @dictFind(ptr noundef %68, ptr noundef %69)
  store ptr %70, ptr %10, align 8, !tbaa !85
  %71 = load ptr, ptr %10, align 8, !tbaa !85
  %72 = icmp ne ptr %71, null
  %73 = xor i1 %72, true
  %74 = xor i1 %73, true
  %75 = zext i1 %74 to i32
  %76 = sext i32 %75 to i64
  %77 = call i64 @llvm.expect.i64(i64 %76, i64 1)
  %78 = icmp ne i64 %77, 0
  br i1 %78, label %79, label %80

79:                                               ; preds = %63
  br label %84

80:                                               ; preds = %63
  %81 = load ptr, ptr %4, align 8, !tbaa !5
  %82 = load ptr, ptr %9, align 8, !tbaa !117
  call void @_serverAssertWithInfo(ptr noundef %81, ptr noundef %82, ptr noundef @.str.10, ptr noundef @.str.1, i32 noundef 532)
  call void @abort() #7
  unreachable

83:                                               ; No predecessors!
  br label %84

84:                                               ; preds = %83, %79
  %85 = load ptr, ptr %10, align 8, !tbaa !85
  %86 = call i64 @dictIncrUnsignedIntegerVal(ptr noundef %85, i64 noundef -1)
  %87 = icmp ne i64 %86, 0
  br i1 %87, label %96, label %88

88:                                               ; preds = %84
  %89 = load ptr, ptr %4, align 8, !tbaa !5
  %90 = getelementptr inbounds nuw %struct.client, ptr %89, i32 0, i32 8
  %91 = load ptr, ptr %90, align 8, !tbaa !110
  %92 = getelementptr inbounds nuw %struct.redisDb, ptr %91, i32 0, i32 4
  %93 = load ptr, ptr %92, align 8, !tbaa !112
  %94 = load ptr, ptr %9, align 8, !tbaa !117
  %95 = call i32 @dictDelete(ptr noundef %93, ptr noundef %94)
  br label %96

96:                                               ; preds = %88, %84
  br label %97

97:                                               ; preds = %96, %57
  br label %98

98:                                               ; preds = %97, %42
  %99 = load i32, ptr %6, align 4, !tbaa !36
  %100 = icmp ne i32 %99, 0
  br i1 %100, label %101, label %108

101:                                              ; preds = %98
  %102 = load ptr, ptr %4, align 8, !tbaa !5
  %103 = getelementptr inbounds nuw %struct.client, ptr %102, i32 0, i32 61
  %104 = getelementptr inbounds nuw %struct.blockingState, ptr %103, i32 0, i32 3
  %105 = load ptr, ptr %104, align 8, !tbaa !31
  %106 = load ptr, ptr %9, align 8, !tbaa !117
  %107 = call i32 @dictDelete(ptr noundef %105, ptr noundef %106)
  br label %108

108:                                              ; preds = %101, %98
  call void @llvm.lifetime.end.p0(i64 8, ptr %10) #8
  call void @llvm.lifetime.end.p0(i64 8, ptr %9) #8
  call void @llvm.lifetime.end.p0(i64 8, ptr %8) #8
  call void @llvm.lifetime.end.p0(i64 8, ptr %7) #8
  ret void
}