; Function Attrs: nounwind uwtable
define internal fastcc void @releaseBlockedEntry(ptr noundef %0, ptr noundef %1, i32 noundef range(i32 0, 2) %2) unnamed_addr #0 {
  %4 = tail call ptr @dictGetKey(ptr noundef %1) #5
  %5 = tail call ptr @dictGetVal(ptr noundef %1) #5
  %6 = getelementptr inbounds nuw i8, ptr %0, i64 32
  %7 = load ptr, ptr %6, align 8, !tbaa !103
  %8 = getelementptr inbounds nuw i8, ptr %7, i64 24
  %9 = load ptr, ptr %8, align 8, !tbaa !95
  %10 = tail call ptr @dictFetchValue(ptr noundef %9, ptr noundef %4) #5
  %.not = icmp eq ptr %10, null
  br i1 %.not, label %11, label %12, !prof !74

11:                                               ; preds = %3
  tail call void @_serverAssertWithInfo(ptr noundef nonnull %0, ptr noundef %4, ptr noundef nonnull @.str.9, ptr noundef nonnull @.str.1, i32 noundef 517) #5
  tail call void @abort() #6
  unreachable

12:                                               ; preds = %3
  tail call void @listUnlinkNode(ptr noundef nonnull %10, ptr noundef %5) #5
  %13 = getelementptr inbounds nuw i8, ptr %10, i64 40
  %14 = load i64, ptr %13, align 8, !tbaa !71
  %15 = icmp eq i64 %14, 0
  br i1 %15, label %16, label %21

16:                                               ; preds = %12
  %17 = load ptr, ptr %6, align 8, !tbaa !103
  %18 = getelementptr inbounds nuw i8, ptr %17, i64 24
  %19 = load ptr, ptr %18, align 8, !tbaa !95
  %20 = tail call i32 @dictDelete(ptr noundef %19, ptr noundef %4) #5
  br label %.sink.split

21:                                               ; preds = %12
  %22 = getelementptr inbounds nuw i8, ptr %0, i64 496
  %23 = load i32, ptr %22, align 8, !tbaa !32
  %.not26 = icmp eq i32 %23, 0
  br i1 %.not26, label %36, label %24

24:                                               ; preds = %21
  %25 = load ptr, ptr %6, align 8, !tbaa !103
  %26 = getelementptr inbounds nuw i8, ptr %25, i64 32
  %27 = load ptr, ptr %26, align 8, !tbaa !107
  %28 = tail call ptr @dictFind(ptr noundef %27, ptr noundef %4) #5
  %.not27 = icmp eq ptr %28, null
  br i1 %.not27, label %29, label %30, !prof !74

29:                                               ; preds = %24
  tail call void @_serverAssertWithInfo(ptr noundef nonnull %0, ptr noundef %4, ptr noundef nonnull @.str.10, ptr noundef nonnull @.str.1, i32 noundef 532) #5
  tail call void @abort() #6
  unreachable

30:                                               ; preds = %24
  %31 = tail call i64 @dictIncrUnsignedIntegerVal(ptr noundef nonnull %28, i64 noundef -1) #5
  %.not28 = icmp eq i64 %31, 0
  br i1 %.not28, label %.sink.split, label %36

.sink.split:                                      ; preds = %30, %16
  %32 = load ptr, ptr %6, align 8, !tbaa !103
  %33 = getelementptr inbounds nuw i8, ptr %32, i64 32
  %34 = load ptr, ptr %33, align 8, !tbaa !107
  %35 = tail call i32 @dictDelete(ptr noundef %34, ptr noundef %4) #5
  br label %36

36:                                               ; preds = %.sink.split, %21, %30
  %.not29 = icmp eq i32 %2, 0
  br i1 %.not29, label %41, label %37

37:                                               ; preds = %36
  %38 = getelementptr inbounds nuw i8, ptr %0, i64 504
  %39 = load ptr, ptr %38, align 8, !tbaa !29
  %40 = tail call i32 @dictDelete(ptr noundef %39, ptr noundef %4) #5
  br label %41

41:                                               ; preds = %37, %36
  ret void
}